; Function Attrs: mustprogress uwtable
define noundef i64 @faiss_IndexIVF_get_list_size(ptr noundef readonly captures(none) %0, i64 noundef %1) local_unnamed_addr #16 {
  %3 = getelementptr inbounds nuw i8, ptr %0, i64 144
  %4 = load ptr, ptr %3, align 8, !tbaa !41
  %5 = load ptr, ptr %4, align 8, !tbaa !3
  %6 = getelementptr inbounds nuw i8, ptr %5, i64 16
  %7 = load ptr, ptr %6, align 8
  %8 = tail call noundef i64 %7(ptr noundef nonnull align 8 dereferenceable(25) %4, i64 noundef %1)
  ret i64 %8
}